; Function Attrs: nounwind uwtable
define internal noundef i32 @run_lmcs(ptr readnone captures(none) %0, ptr noundef %1, ptr noundef readonly captures(none) %2) #0 {
  %4 = getelementptr inbounds nuw i8, ptr %1, i64 4580552
  %5 = load ptr, ptr %4, align 8, !tbaa !60
  %6 = getelementptr inbounds nuw i8, ptr %5, i64 21288
  %7 = load ptr, ptr %6, align 8, !tbaa !23
  %8 = getelementptr inbounds nuw i8, ptr %7, i64 24
  %9 = load i32, ptr %8, align 8, !tbaa !97
  %10 = getelementptr inbounds nuw i8, ptr %2, i64 20
  %11 = load i32, ptr %10, align 4, !tbaa !82
  %12 = mul nsw i32 %11, %9
  %13 = getelementptr inbounds nuw i8, ptr %2, i64 24
  %14 = load i32, ptr %13, align 8, !tbaa !83
  %15 = mul nsw i32 %14, %9
  tail call void @ff_vvc_lmcs_filter(ptr noundef %1, i32 noundef %12, i32 noundef %15) #7
  ret i32 0
}